target datalayout = "e-m:e-p270:32:32-p271:32:32-p272:64:64-i64:64-i128:128-f80:128-n8:16:32:64-S128"
target triple = "x86_64-pc-linux-gnu"

%class.btSoftBodyTriangleCallback = type <{ %class.btTriangleCallback, ptr, ptr, %class.btVector3, %class.btVector3, ptr, ptr, ptr, float, [4 x i8], %class.btHashMap, i32, [4 x i8] }>
%class.btTriangleCallback = type { ptr }
%class.btVector3 = type { [4 x float] }
%class.btHashMap = type { %class.btAlignedObjectArray, %class.btAlignedObjectArray, %class.btAlignedObjectArray.0, %class.btAlignedObjectArray.2 }
%class.btAlignedObjectArray = type <{ [4 x i8], i32, i32, [4 x i8], ptr, i8, [7 x i8] }>
%class.btAlignedObjectArray.0 = type <{ [4 x i8], i32, i32, [4 x i8], ptr, i8, [7 x i8] }>
%class.btAlignedObjectArray.2 = type <{ [4 x i8], i32, i32, [4 x i8], ptr, i8, [7 x i8] }>
%struct.btSoftBodyWorldInfo = type { float, float, float, float, %class.btVector3, ptr, ptr, %class.btVector3, %struct.btSparseSdf }
%struct.btSparseSdf = type { %class.btAlignedObjectArray.58, float, float, i32, i32, i32, i32, i32, [4 x i8] }
%class.btAlignedObjectArray.58 = type <{ [4 x i8], i32, i32, [4 x i8], ptr, i8, [7 x i8] }>
%struct.btTriIndex = type { i32, ptr }
%class.btSoftBody = type { %class.btCollisionObject.base, [4 x i8], %class.btAlignedObjectArray.4, ptr, %"struct.btSoftBody::Config", %"struct.btSoftBody::SolverState", [4 x i8], %"struct.btSoftBody::Pose", ptr, ptr, %class.btAlignedObjectArray.14, %class.btAlignedObjectArray.16, %class.btAlignedObjectArray.18, %class.btAlignedObjectArray.20, %class.btAlignedObjectArray.22, %class.btAlignedObjectArray.24, %class.btAlignedObjectArray.26, %class.btAlignedObjectArray.28, %class.btAlignedObjectArray.28, %class.btAlignedObjectArray.30, %class.btAlignedObjectArray.32, %class.btAlignedObjectArray.34, %class.btAlignedObjectArray.36, %class.btAlignedObjectArray.38, %class.btAlignedObjectArray.40, %class.btAlignedObjectArray.38, %class.btAlignedObjectArray.42, %class.btAlignedObjectArray.44, %class.btAlignedObjectArray.46, float, [2 x %class.btVector3], i8, %struct.btDbvt, %struct.btDbvt, ptr, %struct.btDbvt, %class.btAlignedObjectArray.50, float, float, float, [4 x i8], %class.btAlignedObjectArray.10, float, float, i8, [7 x i8], %class.btAlignedObjectArray.10, %class.btAlignedObjectArray.52, %class.btAlignedObjectArray.54, %class.btAlignedObjectArray.12, i8, i8, [6 x i8], %class.btAlignedObjectArray.56, %class.btVector3, float, i8, [3 x i8], %class.btAlignedObjectArray }
%class.btCollisionObject.base = type <{ ptr, %class.btTransform, %class.btTransform, %class.btVector3, %class.btVector3, %class.btVector3, i32, float, ptr, ptr, ptr, ptr, i32, i32, i32, i32, i32, float, float, float, float, float, float, float, i32, [4 x i8], ptr, i32, i32, i32, float, float, float, i32, [4 x i8], %class.btAlignedObjectArray.4, i32, %class.btVector3 }>
%class.btTransform = type { %class.btMatrix3x3, %class.btVector3 }
%class.btMatrix3x3 = type { [3 x %class.btVector3] }
%class.btAlignedObjectArray.4 = type <{ [4 x i8], i32, i32, [4 x i8], ptr, i8, [7 x i8] }>
%"struct.btSoftBody::Config" = type { i32, float, float, float, float, float, float, float, float, float, float, float, float, float, float, float, float, float, float, float, float, i32, i32, i32, i32, i32, %class.btAlignedObjectArray.6, %class.btAlignedObjectArray.8, %class.btAlignedObjectArray.8, float, float }
%class.btAlignedObjectArray.6 = type <{ [4 x i8], i32, i32, [4 x i8], ptr, i8, [7 x i8] }>
%class.btAlignedObjectArray.8 = type <{ [4 x i8], i32, i32, [4 x i8], ptr, i8, [7 x i8] }>
%"struct.btSoftBody::SolverState" = type { float, float, float, float, float }
%"struct.btSoftBody::Pose" = type { i8, i8, float, %class.btAlignedObjectArray.10, %class.btAlignedObjectArray.12, %class.btVector3, %class.btMatrix3x3, %class.btMatrix3x3, %class.btMatrix3x3 }
%class.btAlignedObjectArray.14 = type <{ [4 x i8], i32, i32, [4 x i8], ptr, i8, [7 x i8] }>
%class.btAlignedObjectArray.16 = type <{ [4 x i8], i32, i32, [4 x i8], ptr, i8, [7 x i8] }>
%class.btAlignedObjectArray.18 = type <{ [4 x i8], i32, i32, [4 x i8], ptr, i8, [7 x i8] }>
%class.btAlignedObjectArray.20 = type <{ [4 x i8], i32, i32, [4 x i8], ptr, i8, [7 x i8] }>
%class.btAlignedObjectArray.22 = type <{ [4 x i8], i32, i32, [4 x i8], ptr, i8, [7 x i8] }>
%class.btAlignedObjectArray.24 = type <{ [4 x i8], i32, i32, [4 x i8], ptr, i8, [7 x i8] }>
%class.btAlignedObjectArray.26 = type <{ [4 x i8], i32, i32, [4 x i8], ptr, i8, [7 x i8] }>
%class.btAlignedObjectArray.28 = type <{ [4 x i8], i32, i32, [4 x i8], ptr, i8, [7 x i8] }>
%class.btAlignedObjectArray.30 = type <{ [4 x i8], i32, i32, [4 x i8], ptr, i8, [7 x i8] }>
%class.btAlignedObjectArray.32 = type <{ [4 x i8], i32, i32, [4 x i8], ptr, i8, [7 x i8] }>
%class.btAlignedObjectArray.34 = type <{ [4 x i8], i32, i32, [4 x i8], ptr, i8, [7 x i8] }>
%class.btAlignedObjectArray.36 = type <{ [4 x i8], i32, i32, [4 x i8], ptr, i8, [7 x i8] }>
%class.btAlignedObjectArray.40 = type <{ [4 x i8], i32, i32, [4 x i8], ptr, i8, [7 x i8] }>
%class.btAlignedObjectArray.38 = type <{ [4 x i8], i32, i32, [4 x i8], ptr, i8, [7 x i8] }>
%class.btAlignedObjectArray.42 = type <{ [4 x i8], i32, i32, [4 x i8], ptr, i8, [7 x i8] }>
%class.btAlignedObjectArray.44 = type <{ [4 x i8], i32, i32, [4 x i8], ptr, i8, [7 x i8] }>
%class.btAlignedObjectArray.46 = type <{ [4 x i8], i32, i32, [4 x i8], ptr, i8, [7 x i8] }>
%struct.btDbvt = type { ptr, ptr, i32, i32, i32, [4 x i8], %class.btAlignedObjectArray.48 }
%class.btAlignedObjectArray.48 = type <{ [4 x i8], i32, i32, [4 x i8], ptr, i8, [7 x i8] }>
%class.btAlignedObjectArray.50 = type <{ [4 x i8], i32, i32, [4 x i8], ptr, i8, [7 x i8] }>
%class.btAlignedObjectArray.10 = type <{ [4 x i8], i32, i32, [4 x i8], ptr, i8, [7 x i8] }>
%class.btAlignedObjectArray.52 = type <{ [4 x i8], i32, i32, [4 x i8], ptr, i8, [7 x i8] }>
%class.btAlignedObjectArray.54 = type <{ [4 x i8], i32, i32, [4 x i8], ptr, i8, [7 x i8] }>
%class.btAlignedObjectArray.12 = type <{ [4 x i8], i32, i32, [4 x i8], ptr, i8, [7 x i8] }>
%class.btAlignedObjectArray.56 = type <{ [4 x i8], i32, i32, [4 x i8], ptr, i8, [7 x i8] }>
%"struct.btSparseSdf<3>::Cell" = type { [4 x [4 x [4 x float]]], [3 x i32], i32, i32, ptr, ptr }

; Function Attrs: inlinehint mustprogress nounwind uwtable
define linkonce_odr dso_local noundef nonnull align 8 dereferenceable(8) ptr @_ZN20btAlignedObjectArrayIPN11btSparseSdfILi3EE4CellEEixEi(ptr noundef nonnull align 8 dereferenceable(25) %0, i32 noundef %1) #5 comdat align 2 {
  %3 = alloca ptr, align 8
  %4 = alloca i32, align 4
  store ptr %0, ptr %3, align 8, !tbaa !303
  store i32 %1, ptr %4, align 4, !tbaa !9
  %5 = load ptr, ptr %3, align 8
  %6 = getelementptr inbounds nuw %class.btAlignedObjectArray.58, ptr %5, i32 0, i32 4
  %7 = load ptr, ptr %6, align 8, !tbaa !308
  %8 = load i32, ptr %4, align 4, !tbaa !9
  %9 = sext i32 %8 to i64
  %10 = getelementptr inbounds ptr, ptr %7, i64 %9
  ret ptr %10
}

; Function Attrs: inlinehint mustprogress nounwind uwtable
define linkonce_odr dso_local noundef i32 @_ZNK20btAlignedObjectArrayIPN11btSparseSdfILi3EE4CellEE4sizeEv(ptr noundef nonnull align 8 dereferenceable(25) %0) #5 comdat align 2 {
  %2 = alloca ptr, align 8
  store ptr %0, ptr %2, align 8, !tbaa !303
  %3 = load ptr, ptr %2, align 8
  %4 = getelementptr inbounds nuw %class.btAlignedObjectArray.58, ptr %3, i32 0, i32 1
  %5 = load i32, ptr %4, align 4, !tbaa !305
  ret i32 %5
}

; Function Attrs: inlinehint mustprogress nounwind uwtable
define linkonce_odr dso_local noundef nonnull align 8 dereferenceable(16) ptr @_ZN20btAlignedObjectArrayI10btTriIndexEixEi(ptr noundef nonnull align 8 dereferenceable(25) %0, i32 noundef %1) #5 comdat align 2 {
  %3 = alloca ptr, align 8
  %4 = alloca i32, align 4
  store ptr %0, ptr %3, align 8, !tbaa !230
  store i32 %1, ptr %4, align 4, !tbaa !9
  %5 = load ptr, ptr %3, align 8
  %6 = getelementptr inbounds nuw %class.btAlignedObjectArray.0, ptr %5, i32 0, i32 4
  %7 = load ptr, ptr %6, align 8, !tbaa !243
  %8 = load i32, ptr %4, align 4, !tbaa !9
  %9 = sext i32 %8 to i64
  %10 = getelementptr inbounds %struct.btTriIndex, ptr %7, i64 %9
  ret ptr %10
}

; Function Attrs: inlinehint mustprogress nounwind uwtable
define linkonce_odr dso_local noundef i32 @_ZNK20btAlignedObjectArrayI10btTriIndexE4sizeEv(ptr noundef nonnull align 8 dereferenceable(25) %0) #5 comdat align 2 {
  %2 = alloca ptr, align 8
  store ptr %0, ptr %2, align 8, !tbaa !230
  %3 = load ptr, ptr %2, align 8
  %4 = getelementptr inbounds nuw %class.btAlignedObjectArray.0, ptr %3, i32 0, i32 1
  %5 = load i32, ptr %4, align 4, !tbaa !244
  ret i32 %5
}

; Function Attrs: mustprogress uwtable
define linkonce_odr dso_local noundef i32 @_ZN11btSparseSdfILi3EE16RemoveReferencesEP16btCollisionShape(ptr noundef nonnull align 8 dereferenceable(60) %0, ptr noundef %1) #2 comdat align 2 {
  %3 = alloca ptr, align 8
  %4 = alloca ptr, align 8
  %5 = alloca i32, align 4
  %6 = alloca i32, align 4
  %7 = alloca ptr, align 8
  %8 = alloca ptr, align 8
  %9 = alloca ptr, align 8
  %10 = alloca ptr, align 8
  store ptr %0, ptr %3, align 8, !tbaa !167
  store ptr %1, ptr %4, align 8, !tbaa !169
  %11 = load ptr, ptr %3, align 8
  call void @llvm.lifetime.start.p0(i64 4, ptr %5) #14
  store i32 0, ptr %5, align 4, !tbaa !9
  call void @llvm.lifetime.start.p0(i64 4, ptr %6) #14
  store i32 0, ptr %6, align 4, !tbaa !9
  br label %12

12:                                               ; preds = %58, %2
  %13 = load i32, ptr %6, align 4, !tbaa !9
  %14 = getelementptr inbounds nuw %struct.btSparseSdf, ptr %11, i32 0, i32 0
  %15 = call noundef i32 @_ZNK20btAlignedObjectArrayIPN11btSparseSdfILi3EE4CellEE4sizeEv(ptr noundef nonnull align 8 dereferenceable(25) %14)
  %16 = icmp slt i32 %13, %15
  br i1 %16, label %18, label %17

17:                                               ; preds = %12
  call void @llvm.lifetime.end.p0(i64 4, ptr %6) #14
  br label %61

18:                                               ; preds = %12
  call void @llvm.lifetime.start.p0(i64 8, ptr %7) #14
  %19 = getelementptr inbounds nuw %struct.btSparseSdf, ptr %11, i32 0, i32 0
  %20 = load i32, ptr %6, align 4, !tbaa !9
  %21 = call noundef nonnull align 8 dereferenceable(8) ptr @_ZN20btAlignedObjectArrayIPN11btSparseSdfILi3EE4CellEEixEi(ptr noundef nonnull align 8 dereferenceable(25) %19, i32 noundef %20)
  store ptr %21, ptr %7, align 8, !tbaa !170
  call void @llvm.lifetime.start.p0(i64 8, ptr %8) #14
  store ptr null, ptr %8, align 8, !tbaa !172
  call void @llvm.lifetime.start.p0(i64 8, ptr %9) #14
  %22 = load ptr, ptr %7, align 8, !tbaa !170
  %23 = load ptr, ptr %22, align 8, !tbaa !172
  store ptr %23, ptr %9, align 8, !tbaa !172
  br label %24

24:                                               ; preds = %54, %18
  %25 = load ptr, ptr %9, align 8, !tbaa !172
  %26 = icmp ne ptr %25, null
  br i1 %26, label %27, label %57

27:                                               ; preds = %24
  call void @llvm.lifetime.start.p0(i64 8, ptr %10) #14
  %28 = load ptr, ptr %9, align 8, !tbaa !172
  %29 = getelementptr inbounds nuw %"struct.btSparseSdf<3>::Cell", ptr %28, i32 0, i32 5
  %30 = load ptr, ptr %29, align 8, !tbaa !174
  store ptr %30, ptr %10, align 8, !tbaa !172
  %31 = load ptr, ptr %9, align 8, !tbaa !172
  %32 = getelementptr inbounds nuw %"struct.btSparseSdf<3>::Cell", ptr %31, i32 0, i32 4
  %33 = load ptr, ptr %32, align 8, !tbaa !176
  %34 = load ptr, ptr %4, align 8, !tbaa !169
  %35 = icmp eq ptr %33, %34
  br i1 %35, label %36, label %54

36:                                               ; preds = %27
  %37 = load ptr, ptr %8, align 8, !tbaa !172
  %38 = icmp ne ptr %37, null
  br i1 %38, label %39, label %43

39:                                               ; preds = %36
  %40 = load ptr, ptr %10, align 8, !tbaa !172
  %41 = load ptr, ptr %8, align 8, !tbaa !172
  %42 = getelementptr inbounds nuw %"struct.btSparseSdf<3>::Cell", ptr %41, i32 0, i32 5
  store ptr %40, ptr %42, align 8, !tbaa !174
  br label %46

43:                                               ; preds = %36
  %44 = load ptr, ptr %10, align 8, !tbaa !172
  %45 = load ptr, ptr %7, align 8, !tbaa !170
  store ptr %44, ptr %45, align 8, !tbaa !172
  br label %46

46:                                               ; preds = %43, %39
  %47 = load ptr, ptr %9, align 8, !tbaa !172
  %48 = icmp eq ptr %47, null
  br i1 %48, label %50, label %49

49:                                               ; preds = %46
  call void @_ZdlPvm(ptr noundef %47, i64 noundef 296) #15
  br label %50

50:                                               ; preds = %49, %46
  %51 = load ptr, ptr %8, align 8, !tbaa !172
  store ptr %51, ptr %9, align 8, !tbaa !172
  %52 = load i32, ptr %5, align 4, !tbaa !9
  %53 = add nsw i32 %52, 1
  store i32 %53, ptr %5, align 4, !tbaa !9
  br label %54

54:                                               ; preds = %50, %27
  %55 = load ptr, ptr %9, align 8, !tbaa !172
  store ptr %55, ptr %8, align 8, !tbaa !172
  %56 = load ptr, ptr %10, align 8, !tbaa !172
  store ptr %56, ptr %9, align 8, !tbaa !172
  call void @llvm.lifetime.end.p0(i64 8, ptr %10) #14
  br label %24, !llvm.loop !177

57:                                               ; preds = %24
  call void @llvm.lifetime.end.p0(i64 8, ptr %9) #14
  call void @llvm.lifetime.end.p0(i64 8, ptr %8) #14
  call void @llvm.lifetime.end.p0(i64 8, ptr %7) #14
  br label %58

58:                                               ; preds = %57
  %59 = load i32, ptr %6, align 4, !tbaa !9
  %60 = add nsw i32 %59, 1
  store i32 %60, ptr %6, align 4, !tbaa !9
  br label %12, !llvm.loop !178

61:                                               ; preds = %17
  %62 = load i32, ptr %5, align 4, !tbaa !9
  call void @llvm.lifetime.end.p0(i64 4, ptr %5) #14
  ret i32 %62
}

; Function Attrs: mustprogress nounwind uwtable
define linkonce_odr dso_local noundef ptr @_ZN10btSoftBody12getWorldInfoEv(ptr noundef nonnull align 8 dereferenceable(2064) %0) #1 comdat align 2 {
  %2 = alloca ptr, align 8
  store ptr %0, ptr %2, align 8, !tbaa !73
  %3 = load ptr, ptr %2, align 8
  %4 = getelementptr inbounds nuw %class.btSoftBody, ptr %3, i32 0, i32 9
  %5 = load ptr, ptr %4, align 8, !tbaa !74
  ret ptr %5
}

; Function Attrs: mustprogress uwtable
define linkonce_odr dso_local noundef ptr @_ZN9btHashMapI9btHashKeyI10btTriIndexES1_E10getAtIndexEi(ptr noundef nonnull align 8 dereferenceable(128) %0, i32 noundef %1) #2 comdat align 2 {
  %3 = alloca ptr, align 8
  %4 = alloca ptr, align 8
  %5 = alloca i32, align 4
  store ptr %0, ptr %4, align 8, !tbaa !62
  store i32 %1, ptr %5, align 4, !tbaa !9
  %6 = load ptr, ptr %4, align 8
  %7 = load i32, ptr %5, align 4, !tbaa !9
  %8 = icmp sge i32 %7, 0
  br i1 %8, label %9, label %18

9:                                                ; preds = %2
  %10 = load i32, ptr %5, align 4, !tbaa !9
  %11 = getelementptr inbounds nuw %class.btHashMap, ptr %6, i32 0, i32 2
  %12 = call noundef i32 @_ZNK20btAlignedObjectArrayI10btTriIndexE4sizeEv(ptr noundef nonnull align 8 dereferenceable(25) %11)
  %13 = icmp slt i32 %10, %12
  br i1 %13, label %14, label %18

14:                                               ; preds = %9
  %15 = getelementptr inbounds nuw %class.btHashMap, ptr %6, i32 0, i32 2
  %16 = load i32, ptr %5, align 4, !tbaa !9
  %17 = call noundef nonnull align 8 dereferenceable(16) ptr @_ZN20btAlignedObjectArrayI10btTriIndexEixEi(ptr noundef nonnull align 8 dereferenceable(25) %15, i32 noundef %16)
  store ptr %17, ptr %3, align 8
  br label %19

18:                                               ; preds = %9, %2
  store ptr null, ptr %3, align 8
  br label %19

19:                                               ; preds = %18, %14
  %20 = load ptr, ptr %3, align 8
  ret ptr %20
}

; Function Attrs: mustprogress nounwind uwtable
define linkonce_odr dso_local noundef i32 @_ZNK9btHashMapI9btHashKeyI10btTriIndexES1_E4sizeEv(ptr noundef nonnull align 8 dereferenceable(128) %0) #1 comdat align 2 {
  %2 = alloca ptr, align 8
  store ptr %0, ptr %2, align 8, !tbaa !62
  %3 = load ptr, ptr %2, align 8
  %4 = getelementptr inbounds nuw %class.btHashMap, ptr %3, i32 0, i32 2
  %5 = call noundef i32 @_ZNK20btAlignedObjectArrayI10btTriIndexE4sizeEv(ptr noundef nonnull align 8 dereferenceable(25) %4)
  ret i32 %5
}

; Function Attrs: mustprogress uwtable
define dso_local void @_ZN26btSoftBodyTriangleCallback10clearCacheEv(ptr noundef nonnull align 8 dereferenceable(220) %0) #2 align 2 {
  %2 = alloca ptr, align 8
  %3 = alloca i32, align 4
  %4 = alloca ptr, align 8
  store ptr %0, ptr %2, align 8, !tbaa !51
  %5 = load ptr, ptr %2, align 8
  call void @llvm.lifetime.start.p0(i64 4, ptr %3) #14
  store i32 0, ptr %3, align 4, !tbaa !9
  br label %6

6:                                                ; preds = %33, %1
  %7 = load i32, ptr %3, align 4, !tbaa !9
  %8 = getelementptr inbounds nuw %class.btSoftBodyTriangleCallback, ptr %5, i32 0, i32 10
  %9 = call noundef i32 @_ZNK9btHashMapI9btHashKeyI10btTriIndexES1_E4sizeEv(ptr noundef nonnull align 8 dereferenceable(128) %8)
  %10 = icmp slt i32 %7, %9
  br i1 %10, label %12, label %11

11:                                               ; preds = %6
  call void @llvm.lifetime.end.p0(i64 4, ptr %3) #14
  br label %36

12:                                               ; preds = %6
  call void @llvm.lifetime.start.p0(i64 8, ptr %4) #14
  %13 = getelementptr inbounds nuw %class.btSoftBodyTriangleCallback, ptr %5, i32 0, i32 10
  %14 = load i32, ptr %3, align 4, !tbaa !9
  %15 = call noundef ptr @_ZN9btHashMapI9btHashKeyI10btTriIndexES1_E10getAtIndexEi(ptr noundef nonnull align 8 dereferenceable(128) %13, i32 noundef %14)
  store ptr %15, ptr %4, align 8, !tbaa !68
  %16 = getelementptr inbounds nuw %class.btSoftBodyTriangleCallback, ptr %5, i32 0, i32 1
  %17 = load ptr, ptr %16, align 8, !tbaa !56
  %18 = call noundef ptr @_ZN10btSoftBody12getWorldInfoEv(ptr noundef nonnull align 8 dereferenceable(2064) %17)
  %19 = getelementptr inbounds nuw %struct.btSoftBodyWorldInfo, ptr %18, i32 0, i32 8
  %20 = load ptr, ptr %4, align 8, !tbaa !68
  %21 = getelementptr inbounds nuw %struct.btTriIndex, ptr %20, i32 0, i32 1
  %22 = load ptr, ptr %21, align 8, !tbaa !69
  %23 = call noundef i32 @_ZN11btSparseSdfILi3EE16RemoveReferencesEP16btCollisionShape(ptr noundef nonnull align 8 dereferenceable(60) %19, ptr noundef %22)
  %24 = load ptr, ptr %4, align 8, !tbaa !68
  %25 = getelementptr inbounds nuw %struct.btTriIndex, ptr %24, i32 0, i32 1
  %26 = load ptr, ptr %25, align 8, !tbaa !69
  %27 = icmp eq ptr %26, null
  br i1 %27, label %32, label %28

28:                                               ; preds = %12
  %29 = load ptr, ptr %26, align 8, !tbaa !20
  %30 = getelementptr inbounds ptr, ptr %29, i64 1
  %31 = load ptr, ptr %30, align 8
  call void %31(ptr noundef nonnull align 8 dereferenceable(32) %26) #14
  br label %32

32:                                               ; preds = %28, %12
  call void @llvm.lifetime.end.p0(i64 8, ptr %4) #14
  br label %33

33:                                               ; preds = %32
  %34 = load i32, ptr %3, align 4, !tbaa !9
  %35 = add nsw i32 %34, 1
  store i32 %35, ptr %3, align 4, !tbaa !9
  br label %6, !llvm.loop !71

36:                                               ; preds = %11
  %37 = getelementptr inbounds nuw %class.btSoftBodyTriangleCallback, ptr %5, i32 0, i32 10
  call void @_ZN9btHashMapI9btHashKeyI10btTriIndexES1_E5clearEv(ptr noundef nonnull align 8 dereferenceable(128) %37)
  ret void
}