; Function Attrs: mustprogress uwtable
define dso_local void @_ZN26btSoftBodyTriangleCallback10clearCacheEv(ptr noundef nonnull align 8 dereferenceable(220) %0) local_unnamed_addr #0 align 2 {
  %2 = getelementptr inbounds nuw i8, ptr %0, i64 156
  %3 = load i32, ptr %2, align 4, !tbaa !44
  %4 = icmp sgt i32 %3, 0
  br i1 %4, label %.lr.ph, label %._crit_edge

.lr.ph:                                           ; preds = %1
  %5 = getelementptr inbounds nuw i8, ptr %0, i64 168
  %6 = getelementptr inbounds nuw i8, ptr %0, i64 8
  br label %8

._crit_edge:                                      ; preds = %44, %1
  %7 = getelementptr inbounds nuw i8, ptr %0, i64 88
  tail call void @_ZN9btHashMapI9btHashKeyI10btTriIndexES1_E5clearEv(ptr noundef nonnull align 8 dereferenceable(128) %7)
  ret void

8:                                                ; preds = %.lr.ph, %44
  %indvars.iv = phi i64 [ 0, %.lr.ph ], [ %indvars.iv.next, %44 ]
  %9 = load ptr, ptr %5, align 8
  %10 = load ptr, ptr %6, align 8, !tbaa !55
  %11 = getelementptr inbounds nuw i8, ptr %10, i64 888
  %12 = load ptr, ptr %11, align 8, !tbaa !57
  %13 = getelementptr inbounds nuw %struct.btTriIndex, ptr %9, i64 %indvars.iv, i32 1
  %14 = load ptr, ptr %13, align 8, !tbaa !151
  %15 = getelementptr inbounds nuw i8, ptr %12, i64 68
  %16 = load i32, ptr %15, align 4, !tbaa !153
  %17 = icmp sgt i32 %16, 0
  br i1 %17, label %.lr.ph31.i, label %_ZN11btSparseSdfILi3EE16RemoveReferencesEP16btCollisionShape.exit

.lr.ph31.i:                                       ; preds = %8
  %18 = getelementptr inbounds nuw i8, ptr %12, i64 80
  br label %19

19:                                               ; preds = %._crit_edge.i, %.lr.ph31.i
  %20 = phi i32 [ %16, %.lr.ph31.i ], [ %35, %._crit_edge.i ]
  %indvars.iv.i = phi i64 [ 0, %.lr.ph31.i ], [ %indvars.iv.next.i, %._crit_edge.i ]
  %21 = load ptr, ptr %18, align 8, !tbaa !157
  %22 = getelementptr inbounds nuw ptr, ptr %21, i64 %indvars.iv.i
  %23 = load ptr, ptr %22, align 8, !tbaa !158
  %.not24.i = icmp eq ptr %23, null
  br i1 %.not24.i, label %._crit_edge.i, label %.lr.ph.i

.lr.ph.i:                                         ; preds = %19, %34
  %.01926.i = phi ptr [ %25, %34 ], [ %23, %19 ]
  %.02125.i = phi ptr [ %.120.i, %34 ], [ null, %19 ]
  %24 = getelementptr inbounds nuw i8, ptr %.01926.i, i64 288
  %25 = load ptr, ptr %24, align 8, !tbaa !160
  %26 = getelementptr inbounds nuw i8, ptr %.01926.i, i64 280
  %27 = load ptr, ptr %26, align 8, !tbaa !162
  %28 = icmp eq ptr %27, %14
  br i1 %28, label %29, label %34

29:                                               ; preds = %.lr.ph.i
  %.not23.i = icmp eq ptr %.02125.i, null
  br i1 %.not23.i, label %32, label %30

30:                                               ; preds = %29
  %31 = getelementptr inbounds nuw i8, ptr %.02125.i, i64 288
  store ptr %25, ptr %31, align 8, !tbaa !160
  br label %33

32:                                               ; preds = %29
  store ptr %25, ptr %22, align 8, !tbaa !158
  br label %33

33:                                               ; preds = %32, %30
  tail call void @_ZdlPvm(ptr noundef nonnull %.01926.i, i64 noundef 296) #16
  br label %34

34:                                               ; preds = %33, %.lr.ph.i
  %.120.i = phi ptr [ %.02125.i, %33 ], [ %.01926.i, %.lr.ph.i ]
  %.not.i = icmp eq ptr %25, null
  br i1 %.not.i, label %._crit_edge.loopexit.i, label %.lr.ph.i, !llvm.loop !163

._crit_edge.loopexit.i:                           ; preds = %34
  %.pre.i = load i32, ptr %15, align 4, !tbaa !153
  br label %._crit_edge.i

._crit_edge.i:                                    ; preds = %._crit_edge.loopexit.i, %19
  %35 = phi i32 [ %20, %19 ], [ %.pre.i, %._crit_edge.loopexit.i ]
  %indvars.iv.next.i = add nuw nsw i64 %indvars.iv.i, 1
  %36 = sext i32 %35 to i64
  %37 = icmp slt i64 %indvars.iv.next.i, %36
  br i1 %37, label %19, label %_ZN11btSparseSdfILi3EE16RemoveReferencesEP16btCollisionShape.exitthread-pre-split, !llvm.loop !165

_ZN11btSparseSdfILi3EE16RemoveReferencesEP16btCollisionShape.exitthread-pre-split: ; preds = %._crit_edge.i
  %.pr = load ptr, ptr %13, align 8, !tbaa !151
  br label %_ZN11btSparseSdfILi3EE16RemoveReferencesEP16btCollisionShape.exit

_ZN11btSparseSdfILi3EE16RemoveReferencesEP16btCollisionShape.exit: ; preds = %_ZN11btSparseSdfILi3EE16RemoveReferencesEP16btCollisionShape.exitthread-pre-split, %8
  %38 = phi ptr [ %.pr, %_ZN11btSparseSdfILi3EE16RemoveReferencesEP16btCollisionShape.exitthread-pre-split ], [ %14, %8 ]
  %39 = icmp eq ptr %38, null
  br i1 %39, label %44, label %40

40:                                               ; preds = %_ZN11btSparseSdfILi3EE16RemoveReferencesEP16btCollisionShape.exit
  %41 = load ptr, ptr %38, align 8, !tbaa !4
  %42 = getelementptr inbounds nuw i8, ptr %41, i64 8
  %43 = load ptr, ptr %42, align 8
  tail call void %43(ptr noundef nonnull align 8 dereferenceable(32) %38) #15
  br label %44

44:                                               ; preds = %40, %_ZN11btSparseSdfILi3EE16RemoveReferencesEP16btCollisionShape.exit
  %indvars.iv.next = add nuw nsw i64 %indvars.iv, 1
  %45 = load i32, ptr %2, align 4, !tbaa !44
  %46 = sext i32 %45 to i64
  %47 = icmp slt i64 %indvars.iv.next, %46
  br i1 %47, label %8, label %._crit_edge, !llvm.loop !166
}